target datalayout = "e-m:e-p270:32:32-p271:32:32-p272:64:64-i64:64-i128:128-f80:128-n8:16:32:64-S128"
target triple = "x86_64-pc-linux-gnu"

@hf_smb2_dh2x_buffer_timeout = internal global i32 0, align 4
@hf_smb2_dh2x_buffer_flags = internal global i32 0, align 4
@hf_smb2_dh2x_buffer_reserved = internal global i32 0, align 4
@hf_smb2_dh2x_buffer_create_guid = internal global i32 0, align 4
@ett_smb2_DH2Q_buffer = internal global i32 0, align 4
@ett_smb2_dh2x_flags = internal global i32 0, align 4
@dissect_smb2_DH2Q_buffer_request.dh2x_flags_fields = internal constant [2 x ptr] [ptr @hf_smb2_dh2x_buffer_flags_persistent_handle, ptr null], align 16
@.str.2220 = private unnamed_addr constant [15 x i8] c": DH2Q Request\00", align 1
@.str.2221 = private unnamed_addr constant [13 x i8] c"DH2Q Request\00", align 1

; Function Attrs: null_pointer_is_valid sspstrong uwtable
define internal void @dissect_smb2_DH2Q_buffer_request(ptr noundef %0, ptr noundef %1, ptr noundef %2, ptr noundef %3) #0 {
  %5 = alloca ptr, align 8
  %6 = alloca ptr, align 8
  %7 = alloca ptr, align 8
  %8 = alloca ptr, align 8
  %9 = alloca i32, align 4
  %10 = alloca ptr, align 8
  %11 = alloca ptr, align 8
  store ptr %0, ptr %5, align 8
  store ptr %1, ptr %6, align 8
  store ptr %2, ptr %7, align 8
  store ptr %3, ptr %8, align 8
  call void @llvm.lifetime.start.p0(i64 4, ptr %9) #13
  store i32 0, ptr %9, align 4
  call void @llvm.lifetime.start.p0(i64 8, ptr %10) #13
  store ptr null, ptr %10, align 8
  call void @llvm.lifetime.start.p0(i64 8, ptr %11) #13
  %12 = load ptr, ptr %7, align 8
  %13 = call ptr @proto_tree_get_parent(ptr noundef %12)
  store ptr %13, ptr %10, align 8
  %14 = load ptr, ptr %10, align 8
  call void (ptr, ptr, ...) @proto_item_append_text(ptr noundef %14, ptr noundef @.str.2220)
  %15 = load ptr, ptr %7, align 8
  %16 = load ptr, ptr %5, align 8
  %17 = load i32, ptr %9, align 4
  %18 = load i32, ptr @ett_smb2_DH2Q_buffer, align 4
  %19 = call ptr @proto_tree_add_subtree(ptr noundef %15, ptr noundef %16, i32 noundef %17, i32 noundef -1, i32 noundef %18, ptr noundef null, ptr noundef @.str.2221)
  store ptr %19, ptr %11, align 8
  %20 = load ptr, ptr %11, align 8
  %21 = load i32, ptr @hf_smb2_dh2x_buffer_timeout, align 4
  %22 = load ptr, ptr %5, align 8
  %23 = load i32, ptr %9, align 4
  %24 = call ptr @proto_tree_add_item(ptr noundef %20, i32 noundef %21, ptr noundef %22, i32 noundef %23, i32 noundef 4, i32 noundef -2147483648)
  %25 = load i32, ptr %9, align 4
  %26 = add i32 %25, 4
  store i32 %26, ptr %9, align 4
  %27 = load ptr, ptr %11, align 8
  %28 = load ptr, ptr %5, align 8
  %29 = load i32, ptr %9, align 4
  %30 = load i32, ptr @hf_smb2_dh2x_buffer_flags, align 4
  %31 = load i32, ptr @ett_smb2_dh2x_flags, align 4
  %32 = call ptr @proto_tree_add_bitmask(ptr noundef %27, ptr noundef %28, i32 noundef %29, i32 noundef %30, i32 noundef %31, ptr noundef @dissect_smb2_DH2Q_buffer_request.dh2x_flags_fields, i32 noundef -2147483648)
  %33 = load i32, ptr %9, align 4
  %34 = add i32 %33, 4
  store i32 %34, ptr %9, align 4
  %35 = load ptr, ptr %11, align 8
  %36 = load i32, ptr @hf_smb2_dh2x_buffer_reserved, align 4
  %37 = load ptr, ptr %5, align 8
  %38 = load i32, ptr %9, align 4
  %39 = call ptr @proto_tree_add_item(ptr noundef %35, i32 noundef %36, ptr noundef %37, i32 noundef %38, i32 noundef 8, i32 noundef -2147483648)
  %40 = load i32, ptr %9, align 4
  %41 = add i32 %40, 8
  store i32 %41, ptr %9, align 4
  %42 = load ptr, ptr %11, align 8
  %43 = load i32, ptr @hf_smb2_dh2x_buffer_create_guid, align 4
  %44 = load ptr, ptr %5, align 8
  %45 = load i32, ptr %9, align 4
  %46 = call ptr @proto_tree_add_item(ptr noundef %42, i32 noundef %43, ptr noundef %44, i32 noundef %45, i32 noundef 16, i32 noundef -2147483648)
  call void @llvm.lifetime.end.p0(i64 8, ptr %11) #13
  call void @llvm.lifetime.end.p0(i64 8, ptr %10) #13
  call void @llvm.lifetime.end.p0(i64 4, ptr %9) #13
  ret void
}