; Function Attrs: null_pointer_is_valid sspstrong uwtable
define internal void @dissect_smb2_DH2Q_buffer_request(ptr noundef %0, ptr readnone captures(none) %1, ptr noundef %2, ptr readnone captures(none) %3) #0 {
  %5 = tail call ptr @proto_tree_get_parent(ptr noundef %2)
  tail call void (ptr, ptr, ...) @proto_item_append_text(ptr noundef %5, ptr noundef nonnull @.str.2220)
  %6 = load i32, ptr @ett_smb2_DH2Q_buffer, align 4
  %7 = tail call ptr @proto_tree_add_subtree(ptr noundef %2, ptr noundef %0, i32 noundef 0, i32 noundef -1, i32 noundef %6, ptr noundef null, ptr noundef nonnull @.str.2221)
  %8 = load i32, ptr @hf_smb2_dh2x_buffer_timeout, align 4
  %9 = tail call ptr @proto_tree_add_item(ptr noundef %7, i32 noundef %8, ptr noundef %0, i32 noundef 0, i32 noundef 4, i32 noundef -2147483648)
  %10 = load i32, ptr @hf_smb2_dh2x_buffer_flags, align 4
  %11 = load i32, ptr @ett_smb2_dh2x_flags, align 4
  %12 = tail call ptr @proto_tree_add_bitmask(ptr noundef %7, ptr noundef %0, i32 noundef 4, i32 noundef %10, i32 noundef %11, ptr noundef nonnull @dissect_smb2_DH2Q_buffer_request.dh2x_flags_fields, i32 noundef -2147483648)
  %13 = load i32, ptr @hf_smb2_dh2x_buffer_reserved, align 4
  %14 = tail call ptr @proto_tree_add_item(ptr noundef %7, i32 noundef %13, ptr noundef %0, i32 noundef 8, i32 noundef 8, i32 noundef -2147483648)
  %15 = load i32, ptr @hf_smb2_dh2x_buffer_create_guid, align 4
  %16 = tail call ptr @proto_tree_add_item(ptr noundef %7, i32 noundef %15, ptr noundef %0, i32 noundef 16, i32 noundef 16, i32 noundef -2147483648)
  ret void
}